target datalayout = "e-m:e-p270:32:32-p271:32:32-p272:64:64-i64:64-i128:128-f80:128-n8:16:32:64-S128"
target triple = "x86_64-unknown-linux-gnu"

; Function Attrs: mustprogress uwtable
define hidden void @_ZN4cvc58internal6theory18PartitionGenerator9postsolveENS0_4prop8SatValueE(ptr noundef nonnull align 8 dereferenceable(456) %this, i32 noundef %result) unnamed_addr #5 align 2 {
entry:
  %this.addr = alloca ptr, align 8
  %result.addr = alloca i32, align 4
  store ptr %this, ptr %this.addr, align 8
  store i32 %result, ptr %result.addr, align 4
  %this1 = load ptr, ptr %this.addr, align 8
  %0 = load i32, ptr %result.addr, align 4
  %cmp = icmp ne i32 %0, 1
  br i1 %cmp, label %if.then, label %if.end

if.then:                                          ; preds = %entry
  call void @_ZN4cvc58internal6theory18PartitionGenerator23emitRemainingPartitionsEb(ptr noundef nonnull align 8 dereferenceable(456) %this1, i1 noundef zeroext true)
  br label %if.end

if.end:                                           ; preds = %if.then, %entry
  ret void
}