; Function Attrs: mustprogress uwtable
define hidden void @_ZN4cvc58internal6theory18PartitionGenerator9postsolveENS0_4prop8SatValueE(ptr noundef nonnull align 8 dereferenceable(456) %this, i32 noundef %result) unnamed_addr #3 align 2 {
entry:
  %cmp.not = icmp eq i32 %result, 1
  br i1 %cmp.not, label %if.end, label %if.then

if.then:                                          ; preds = %entry
  tail call void @_ZN4cvc58internal6theory18PartitionGenerator23emitRemainingPartitionsEb(ptr noundef nonnull align 8 dereferenceable(456) %this, i1 noundef zeroext true)
  br label %if.end

if.end:                                           ; preds = %if.then, %entry
  ret void
}